target datalayout = "e-m:e-p270:32:32-p271:32:32-p272:64:64-i64:64-i128:128-f80:128-n8:16:32:64-S128"
target triple = "x86_64-pc-linux-gnu"

%"class.pxrInternal_v0_24__pxrReserved__::GfMatrix3f" = type { %"class.pxrInternal_v0_24__pxrReserved__::GfMatrixData" }
%"class.pxrInternal_v0_24__pxrReserved__::GfMatrixData" = type { [9 x float] }

; Function Attrs: mustprogress nounwind uwtable
define linkonce_odr noundef ptr @_ZN32pxrInternal_v0_24__pxrReserved__12GfMatrixDataIfLi3ELi3EEixEi(ptr noundef nonnull align 4 dereferenceable(36) %0, i32 noundef %1) #2 comdat align 2 {
  %3 = alloca ptr, align 8
  %4 = alloca i32, align 4
  store ptr %0, ptr %3, align 8
  store i32 %1, ptr %4, align 4
  %5 = load ptr, ptr %3, align 8
  %6 = getelementptr inbounds nuw %"class.pxrInternal_v0_24__pxrReserved__::GfMatrixData", ptr %5, i32 0, i32 0
  %7 = getelementptr inbounds [9 x float], ptr %6, i64 0, i64 0
  %8 = load i32, ptr %4, align 4
  %9 = mul nsw i32 %8, 3
  %10 = sext i32 %9 to i64
  %11 = getelementptr inbounds float, ptr %7, i64 %10
  ret ptr %11
}

; Function Attrs: mustprogress uwtable
define noundef nonnull align 4 dereferenceable(36) ptr @_ZN32pxrInternal_v0_24__pxrReserved__10GfMatrix3f8SetScaleEf(ptr noundef nonnull align 4 dereferenceable(36) %0, float noundef %1) #0 align 2 {
  %3 = alloca ptr, align 8
  %4 = alloca float, align 4
  store ptr %0, ptr %3, align 8
  store float %1, ptr %4, align 4
  %5 = load ptr, ptr %3, align 8
  %6 = load float, ptr %4, align 4
  %7 = getelementptr inbounds nuw %"class.pxrInternal_v0_24__pxrReserved__::GfMatrix3f", ptr %5, i32 0, i32 0
  %8 = call noundef ptr @_ZN32pxrInternal_v0_24__pxrReserved__12GfMatrixDataIfLi3ELi3EEixEi(ptr noundef nonnull align 4 dereferenceable(36) %7, i32 noundef 0)
  %9 = getelementptr inbounds float, ptr %8, i64 0
  store float %6, ptr %9, align 4
  %10 = getelementptr inbounds nuw %"class.pxrInternal_v0_24__pxrReserved__::GfMatrix3f", ptr %5, i32 0, i32 0
  %11 = call noundef ptr @_ZN32pxrInternal_v0_24__pxrReserved__12GfMatrixDataIfLi3ELi3EEixEi(ptr noundef nonnull align 4 dereferenceable(36) %10, i32 noundef 0)
  %12 = getelementptr inbounds float, ptr %11, i64 1
  store float 0.000000e+00, ptr %12, align 4
  %13 = getelementptr inbounds nuw %"class.pxrInternal_v0_24__pxrReserved__::GfMatrix3f", ptr %5, i32 0, i32 0
  %14 = call noundef ptr @_ZN32pxrInternal_v0_24__pxrReserved__12GfMatrixDataIfLi3ELi3EEixEi(ptr noundef nonnull align 4 dereferenceable(36) %13, i32 noundef 0)
  %15 = getelementptr inbounds float, ptr %14, i64 2
  store float 0.000000e+00, ptr %15, align 4
  %16 = getelementptr inbounds nuw %"class.pxrInternal_v0_24__pxrReserved__::GfMatrix3f", ptr %5, i32 0, i32 0
  %17 = call noundef ptr @_ZN32pxrInternal_v0_24__pxrReserved__12GfMatrixDataIfLi3ELi3EEixEi(ptr noundef nonnull align 4 dereferenceable(36) %16, i32 noundef 1)
  %18 = getelementptr inbounds float, ptr %17, i64 0
  store float 0.000000e+00, ptr %18, align 4
  %19 = load float, ptr %4, align 4
  %20 = getelementptr inbounds nuw %"class.pxrInternal_v0_24__pxrReserved__::GfMatrix3f", ptr %5, i32 0, i32 0
  %21 = call noundef ptr @_ZN32pxrInternal_v0_24__pxrReserved__12GfMatrixDataIfLi3ELi3EEixEi(ptr noundef nonnull align 4 dereferenceable(36) %20, i32 noundef 1)
  %22 = getelementptr inbounds float, ptr %21, i64 1
  store float %19, ptr %22, align 4
  %23 = getelementptr inbounds nuw %"class.pxrInternal_v0_24__pxrReserved__::GfMatrix3f", ptr %5, i32 0, i32 0
  %24 = call noundef ptr @_ZN32pxrInternal_v0_24__pxrReserved__12GfMatrixDataIfLi3ELi3EEixEi(ptr noundef nonnull align 4 dereferenceable(36) %23, i32 noundef 1)
  %25 = getelementptr inbounds float, ptr %24, i64 2
  store float 0.000000e+00, ptr %25, align 4
  %26 = getelementptr inbounds nuw %"class.pxrInternal_v0_24__pxrReserved__::GfMatrix3f", ptr %5, i32 0, i32 0
  %27 = call noundef ptr @_ZN32pxrInternal_v0_24__pxrReserved__12GfMatrixDataIfLi3ELi3EEixEi(ptr noundef nonnull align 4 dereferenceable(36) %26, i32 noundef 2)
  %28 = getelementptr inbounds float, ptr %27, i64 0
  store float 0.000000e+00, ptr %28, align 4
  %29 = getelementptr inbounds nuw %"class.pxrInternal_v0_24__pxrReserved__::GfMatrix3f", ptr %5, i32 0, i32 0
  %30 = call noundef ptr @_ZN32pxrInternal_v0_24__pxrReserved__12GfMatrixDataIfLi3ELi3EEixEi(ptr noundef nonnull align 4 dereferenceable(36) %29, i32 noundef 2)
  %31 = getelementptr inbounds float, ptr %30, i64 1
  store float 0.000000e+00, ptr %31, align 4
  %32 = load float, ptr %4, align 4
  %33 = getelementptr inbounds nuw %"class.pxrInternal_v0_24__pxrReserved__::GfMatrix3f", ptr %5, i32 0, i32 0
  %34 = call noundef ptr @_ZN32pxrInternal_v0_24__pxrReserved__12GfMatrixDataIfLi3ELi3EEixEi(ptr noundef nonnull align 4 dereferenceable(36) %33, i32 noundef 2)
  %35 = getelementptr inbounds float, ptr %34, i64 2
  store float %32, ptr %35, align 4
  ret ptr %5
}