; Function Attrs: mustprogress nofree norecurse nosync nounwind willreturn memory(argmem: write) uwtable
define noundef nonnull align 4 dereferenceable(36) ptr @_ZN32pxrInternal_v0_24__pxrReserved__10GfMatrix3f8SetScaleEf(ptr noundef nonnull returned writeonly align 4 dereferenceable(36) %0, float noundef %1) local_unnamed_addr #5 align 2 {
  store float %1, ptr %0, align 4
  %3 = getelementptr inbounds i8, ptr %0, i64 4
  store float 0.000000e+00, ptr %3, align 4
  %4 = getelementptr inbounds i8, ptr %0, i64 8
  store float 0.000000e+00, ptr %4, align 4
  %5 = getelementptr inbounds i8, ptr %0, i64 12
  store float 0.000000e+00, ptr %5, align 4
  %6 = getelementptr inbounds i8, ptr %0, i64 16
  store float %1, ptr %6, align 4
  %7 = getelementptr inbounds i8, ptr %0, i64 20
  store float 0.000000e+00, ptr %7, align 4
  %8 = getelementptr inbounds i8, ptr %0, i64 24
  store float 0.000000e+00, ptr %8, align 4
  %9 = getelementptr inbounds i8, ptr %0, i64 28
  store float 0.000000e+00, ptr %9, align 4
  %10 = getelementptr inbounds i8, ptr %0, i64 32
  store float %1, ptr %10, align 4
  ret ptr %0
}